; Function Attrs: nounwind sspstrong uwtable
define dso_local void @tcg_gen_setcond_i64(i32 noundef %0, ptr noundef %1, ptr noundef %2, ptr noundef %3) local_unnamed_addr #2 {
  switch i32 %0, label %31 [
    i32 1, label %5
    i32 0, label %18
  ]

5:                                                ; preds = %4
  %6 = tail call ptr @tcg_constant_i64(i64 noundef 1) #6
  %7 = icmp eq ptr %1, %6
  br i1 %7, label %tcg_gen_movi_i64.exit, label %8

8:                                                ; preds = %5
  %9 = tail call align 8 ptr @llvm.threadlocal.address.p0(ptr align 8 @tcg_ctx)
  %10 = load ptr, ptr %9, align 8
  %11 = ptrtoint ptr %1 to i64
  %12 = getelementptr inbounds nuw i8, ptr %10, i64 %11
  %13 = ptrtoint ptr %12 to i64
  %14 = ptrtoint ptr %6 to i64
  %15 = getelementptr inbounds nuw i8, ptr %10, i64 %14
  %16 = ptrtoint ptr %15 to i64
  %17 = tail call ptr @tcg_gen_op2(i32 noundef 63, i32 noundef 1, i64 noundef %13, i64 noundef %16)
  br label %tcg_gen_movi_i64.exit

18:                                               ; preds = %4
  %19 = tail call ptr @tcg_constant_i64(i64 noundef 0) #6
  %20 = icmp eq ptr %1, %19
  br i1 %20, label %tcg_gen_movi_i64.exit, label %21

21:                                               ; preds = %18
  %22 = tail call align 8 ptr @llvm.threadlocal.address.p0(ptr align 8 @tcg_ctx)
  %23 = load ptr, ptr %22, align 8
  %24 = ptrtoint ptr %1 to i64
  %25 = getelementptr inbounds nuw i8, ptr %23, i64 %24
  %26 = ptrtoint ptr %25 to i64
  %27 = ptrtoint ptr %19 to i64
  %28 = getelementptr inbounds nuw i8, ptr %23, i64 %27
  %29 = ptrtoint ptr %28 to i64
  %30 = tail call ptr @tcg_gen_op2(i32 noundef 63, i32 noundef 1, i64 noundef %26, i64 noundef %29)
  br label %tcg_gen_movi_i64.exit

31:                                               ; preds = %4
  %32 = zext i32 %0 to i64
  %33 = tail call align 8 ptr @llvm.threadlocal.address.p0(ptr align 8 @tcg_ctx)
  %34 = load ptr, ptr %33, align 8
  %35 = ptrtoint ptr %1 to i64
  %36 = getelementptr inbounds nuw i8, ptr %34, i64 %35
  %37 = ptrtoint ptr %36 to i64
  %38 = ptrtoint ptr %2 to i64
  %39 = getelementptr inbounds nuw i8, ptr %34, i64 %38
  %40 = ptrtoint ptr %39 to i64
  %41 = ptrtoint ptr %3 to i64
  %42 = getelementptr inbounds nuw i8, ptr %34, i64 %41
  %43 = ptrtoint ptr %42 to i64
  %44 = tail call ptr @tcg_gen_op4(i32 noundef 64, i32 noundef 1, i64 noundef %37, i64 noundef %40, i64 noundef %43, i64 noundef range(i64 1, 4294967296) %32)
  br label %tcg_gen_movi_i64.exit

tcg_gen_movi_i64.exit:                            ; preds = %21, %18, %8, %5, %31
  ret void
}